target datalayout = "e-m:e-p270:32:32-p271:32:32-p272:64:64-i64:64-i128:128-f80:128-n8:16:32:64-S128"
target triple = "x86_64-pc-linux-gnu"

%"struct.ODDLParser::Reference" = type { i64, ptr }

@_ZN10ODDLParser4NameC1ERKS0_ = hidden unnamed_addr alias void (ptr, ptr), ptr @_ZN10ODDLParser4NameC2ERKS0_

; Function Attrs: mustprogress uwtable
define hidden void @_ZN10ODDLParser9ReferenceC2ERKS0_(ptr noundef nonnull align 8 dereferenceable(16) %0, ptr noundef nonnull align 8 dereferenceable(16) %1) unnamed_addr #0 align 2 personality ptr @__gxx_personality_v0 {
  %3 = alloca ptr, align 8
  %4 = alloca ptr, align 8
  %5 = alloca i64, align 8
  %6 = alloca ptr, align 8
  %7 = alloca i32, align 4
  store ptr %0, ptr %3, align 8
  store ptr %1, ptr %4, align 8
  %8 = load ptr, ptr %3, align 8
  %9 = load ptr, ptr %4, align 8
  %10 = getelementptr inbounds nuw %"struct.ODDLParser::Reference", ptr %9, i32 0, i32 0
  %11 = load i64, ptr %10, align 8
  %12 = getelementptr inbounds nuw %"struct.ODDLParser::Reference", ptr %8, i32 0, i32 0
  store i64 %11, ptr %12, align 8
  %13 = getelementptr inbounds nuw %"struct.ODDLParser::Reference", ptr %8, i32 0, i32 0
  %14 = load i64, ptr %13, align 8
  %15 = icmp ne i64 %14, 0
  br i1 %15, label %16, label %52

16:                                               ; preds = %2
  %17 = getelementptr inbounds nuw %"struct.ODDLParser::Reference", ptr %8, i32 0, i32 0
  %18 = load i64, ptr %17, align 8
  %19 = call { i64, i1 } @llvm.umul.with.overflow.i64(i64 %18, i64 8)
  %20 = extractvalue { i64, i1 } %19, 1
  %21 = extractvalue { i64, i1 } %19, 0
  %22 = select i1 %20, i64 -1, i64 %21
  %23 = call noalias noundef nonnull ptr @_Znam(i64 noundef %22) #9
  %24 = getelementptr inbounds nuw %"struct.ODDLParser::Reference", ptr %8, i32 0, i32 1
  store ptr %23, ptr %24, align 8
  call void @llvm.lifetime.start.p0(i64 8, ptr %5) #10
  store i64 0, ptr %5, align 8
  br label %25

25:                                               ; preds = %44, %16
  %26 = load i64, ptr %5, align 8
  %27 = getelementptr inbounds nuw %"struct.ODDLParser::Reference", ptr %8, i32 0, i32 0
  %28 = load i64, ptr %27, align 8
  %29 = icmp ult i64 %26, %28
  br i1 %29, label %31, label %30

30:                                               ; preds = %25
  call void @llvm.lifetime.end.p0(i64 8, ptr %5) #10
  br label %51

31:                                               ; preds = %25
  %32 = call noalias noundef nonnull ptr @_Znwm(i64 noundef 16) #9
  %33 = load ptr, ptr %4, align 8
  %34 = getelementptr inbounds nuw %"struct.ODDLParser::Reference", ptr %33, i32 0, i32 1
  %35 = load ptr, ptr %34, align 8
  %36 = load i64, ptr %5, align 8
  %37 = getelementptr inbounds nuw ptr, ptr %35, i64 %36
  %38 = load ptr, ptr %37, align 8
  invoke void @_ZN10ODDLParser4NameC1ERKS0_(ptr noundef nonnull align 8 dereferenceable(16) %32, ptr noundef nonnull align 8 dereferenceable(16) %38)
          to label %39 unwind label %47

39:                                               ; preds = %31
  %40 = getelementptr inbounds nuw %"struct.ODDLParser::Reference", ptr %8, i32 0, i32 1
  %41 = load ptr, ptr %40, align 8
  %42 = load i64, ptr %5, align 8
  %43 = getelementptr inbounds nuw ptr, ptr %41, i64 %42
  store ptr %32, ptr %43, align 8
  br label %44

44:                                               ; preds = %39
  %45 = load i64, ptr %5, align 8
  %46 = add i64 %45, 1
  store i64 %46, ptr %5, align 8
  br label %25, !llvm.loop !5

47:                                               ; preds = %31
  %48 = landingpad { ptr, i32 }
          cleanup
  %49 = extractvalue { ptr, i32 } %48, 0
  store ptr %49, ptr %6, align 8
  %50 = extractvalue { ptr, i32 } %48, 1
  store i32 %50, ptr %7, align 4
  call void @_ZdlPvm(ptr noundef %32, i64 noundef 16) #12
  call void @llvm.lifetime.end.p0(i64 8, ptr %5) #10
  br label %53

51:                                               ; preds = %30
  br label %52

52:                                               ; preds = %51, %2
  ret void

53:                                               ; preds = %47
  %54 = load ptr, ptr %6, align 8
  %55 = load i32, ptr %7, align 4
  %56 = insertvalue { ptr, i32 } poison, ptr %54, 0
  %57 = insertvalue { ptr, i32 } %56, i32 %55, 1
  resume { ptr, i32 } %57
}