; Function Attrs: mustprogress uwtable
define hidden void @_ZN10ODDLParser9ReferenceC2ERKS0_(ptr noundef nonnull align 8 captures(none) dereferenceable(16) initializes((0, 8)) %0, ptr noundef nonnull readonly align 8 captures(none) dereferenceable(16) %1) unnamed_addr #0 align 2 personality ptr @__gxx_personality_v0 {
  %3 = load i64, ptr %1, align 8
  store i64 %3, ptr %0, align 8
  %.not = icmp eq i64 %3, 0
  br i1 %.not, label %.loopexit, label %.lr.ph

.lr.ph:                                           ; preds = %2
  %4 = icmp ugt i64 %3, 2305843009213693951
  %5 = shl i64 %3, 3
  %6 = select i1 %4, i64 -1, i64 %5
  %7 = tail call noalias noundef nonnull ptr @_Znam(i64 noundef %6) #11
  %8 = getelementptr inbounds nuw i8, ptr %0, i64 8
  store ptr %7, ptr %8, align 8
  %9 = getelementptr inbounds nuw i8, ptr %1, i64 8
  br label %10

10:                                               ; preds = %.lr.ph, %32
  %.011 = phi i64 [ 0, %.lr.ph ], [ %36, %32 ]
  %11 = tail call noalias noundef nonnull dereferenceable(16) ptr @_Znwm(i64 noundef 16) #11
  %12 = load ptr, ptr %9, align 8
  %13 = getelementptr inbounds nuw ptr, ptr %12, i64 %.011
  %14 = load ptr, ptr %13, align 8
  %15 = load i32, ptr %14, align 8
  store i32 %15, ptr %11, align 8
  %16 = invoke noalias noundef nonnull dereferenceable(24) ptr @_Znwm(i64 noundef 24) #11
          to label %.noexc unwind label %39

.noexc:                                           ; preds = %10
  %17 = getelementptr inbounds nuw i8, ptr %14, i64 8
  %18 = load ptr, ptr %17, align 8
  %19 = getelementptr inbounds nuw i8, ptr %18, i64 16
  %20 = load ptr, ptr %19, align 8
  %21 = getelementptr inbounds nuw i8, ptr %18, i64 8
  %22 = load i64, ptr %21, align 8
  %.not.i.i.i = icmp eq i64 %22, 0
  tail call void @llvm.memset.p0.i64(ptr noundef nonnull align 8 dereferenceable(24) %16, i8 0, i64 24, i1 false)
  br i1 %.not.i.i.i, label %32, label %23

23:                                               ; preds = %.noexc
  %24 = getelementptr inbounds nuw i8, ptr %16, i64 8
  store i64 %22, ptr %24, align 8
  %25 = add i64 %22, 1
  store i64 %25, ptr %16, align 8
  %26 = invoke noalias noundef nonnull ptr @_Znam(i64 noundef %25) #11
          to label %.noexc.i unwind label %30

.noexc.i:                                         ; preds = %23
  %27 = getelementptr inbounds nuw i8, ptr %16, i64 16
  store ptr %26, ptr %27, align 8
  %28 = tail call ptr @strncpy(ptr noundef nonnull %26, ptr noundef readonly %20, i64 noundef %22) #12
  %29 = getelementptr inbounds nuw i8, ptr %26, i64 %22
  store i8 0, ptr %29, align 1
  br label %32

30:                                               ; preds = %23
  %31 = landingpad { ptr, i32 }
          cleanup
  tail call void @_ZdlPvm(ptr noundef nonnull %16, i64 noundef 24) #13
  br label %.body

32:                                               ; preds = %.noexc.i, %.noexc
  %33 = getelementptr inbounds nuw i8, ptr %11, i64 8
  store ptr %16, ptr %33, align 8
  %34 = load ptr, ptr %8, align 8
  %35 = getelementptr inbounds nuw ptr, ptr %34, i64 %.011
  store ptr %11, ptr %35, align 8
  %36 = add nuw i64 %.011, 1
  %37 = load i64, ptr %0, align 8
  %38 = icmp ult i64 %36, %37
  br i1 %38, label %10, label %.loopexit, !llvm.loop !5

39:                                               ; preds = %10
  %40 = landingpad { ptr, i32 }
          cleanup
  br label %.body

.body:                                            ; preds = %30, %39
  %eh.lpad-body = phi { ptr, i32 } [ %40, %39 ], [ %31, %30 ]
  tail call void @_ZdlPvm(ptr noundef nonnull %11, i64 noundef 16) #13
  resume { ptr, i32 } %eh.lpad-body

.loopexit:                                        ; preds = %32, %2
  ret void
}